; Function Attrs: nounwind uwtable
define ptr @l_Lean_PrettyPrinter_Parenthesizer_ite___rarg___boxed(ptr noundef %0, ptr noundef %1, ptr noundef %2, ptr noundef %3, ptr noundef %4, ptr noundef %5, ptr noundef %6, ptr noundef %7) #0 {
  %9 = ptrtoint ptr %0 to i64
  %10 = and i64 %9, 1
  %.not = icmp eq i64 %10, 0
  br i1 %.not, label %11, label %lean_dec.exit

11:                                               ; preds = %8
  %12 = load i32, ptr %0, align 4, !tbaa !8
  %13 = icmp sgt i32 %12, 1
  br i1 %13, label %14, label %16, !prof !11

14:                                               ; preds = %11
  %15 = add nsw i32 %12, -1
  store i32 %15, ptr %0, align 4, !tbaa !8
  br label %lean_dec.exit

16:                                               ; preds = %11
  %.not.i = icmp eq i32 %12, 0
  br i1 %.not.i, label %lean_dec.exit, label %17

17:                                               ; preds = %16
  tail call void @lean_dec_ref_cold(ptr noundef nonnull %0) #6
  br label %lean_dec.exit

lean_dec.exit:                                    ; preds = %17, %16, %14, %8
  %18 = and i64 %9, 510
  %19 = icmp eq i64 %18, 0
  br i1 %19, label %20, label %30

20:                                               ; preds = %lean_dec.exit
  %21 = ptrtoint ptr %1 to i64
  %22 = and i64 %21, 1
  %.not20.i = icmp eq i64 %22, 0
  br i1 %.not20.i, label %23, label %l_Lean_PrettyPrinter_Parenthesizer_ite___rarg.exit

23:                                               ; preds = %20
  %24 = load i32, ptr %1, align 4, !tbaa !8
  %25 = icmp sgt i32 %24, 1
  br i1 %25, label %26, label %28, !prof !11

26:                                               ; preds = %23
  %27 = add nsw i32 %24, -1
  store i32 %27, ptr %1, align 4, !tbaa !8
  br label %l_Lean_PrettyPrinter_Parenthesizer_ite___rarg.exit

28:                                               ; preds = %23
  %.not.i.i = icmp eq i32 %24, 0
  br i1 %.not.i.i, label %l_Lean_PrettyPrinter_Parenthesizer_ite___rarg.exit, label %29

29:                                               ; preds = %28
  tail call void @lean_dec_ref_cold(ptr noundef nonnull %1) #6
  br label %l_Lean_PrettyPrinter_Parenthesizer_ite___rarg.exit

30:                                               ; preds = %lean_dec.exit
  %31 = ptrtoint ptr %2 to i64
  %32 = and i64 %31, 1
  %.not.i10 = icmp eq i64 %32, 0
  br i1 %.not.i10, label %33, label %l_Lean_PrettyPrinter_Parenthesizer_ite___rarg.exit

33:                                               ; preds = %30
  %34 = load i32, ptr %2, align 4, !tbaa !8
  %35 = icmp sgt i32 %34, 1
  br i1 %35, label %36, label %38, !prof !11

36:                                               ; preds = %33
  %37 = add nsw i32 %34, -1
  store i32 %37, ptr %2, align 4, !tbaa !8
  br label %l_Lean_PrettyPrinter_Parenthesizer_ite___rarg.exit

38:                                               ; preds = %33
  %.not.i18.i = icmp eq i32 %34, 0
  br i1 %.not.i18.i, label %l_Lean_PrettyPrinter_Parenthesizer_ite___rarg.exit, label %39

39:                                               ; preds = %38
  tail call void @lean_dec_ref_cold(ptr noundef nonnull %2) #6
  br label %l_Lean_PrettyPrinter_Parenthesizer_ite___rarg.exit

l_Lean_PrettyPrinter_Parenthesizer_ite___rarg.exit: ; preds = %20, %26, %28, %29, %30, %36, %38, %39
  %.sink.i = phi ptr [ %2, %29 ], [ %2, %28 ], [ %2, %26 ], [ %2, %20 ], [ %1, %39 ], [ %1, %38 ], [ %1, %36 ], [ %1, %30 ]
  %40 = tail call ptr @lean_apply_5(ptr noundef %.sink.i, ptr noundef %3, ptr noundef %4, ptr noundef %5, ptr noundef %6, ptr noundef %7) #6
  ret ptr %40
}